; Function Attrs: mustprogress nofree norecurse nosync nounwind sspstrong willreturn memory(readwrite, inaccessiblemem: none) uwtable
define dso_local void @rb_match_busy(i64 noundef %0) local_unnamed_addr #7 {
  %2 = icmp eq i64 %0, 0
  %3 = and i64 %0, 7
  %4 = icmp ne i64 %3, 0
  %5 = or i1 %2, %4
  br i1 %5, label %RB_FL_SET.exit, label %RB_FL_ABLE.exit.i

RB_FL_ABLE.exit.i:                                ; preds = %1
  %6 = inttoptr i64 %0 to ptr
  %7 = load i64, ptr %6, align 8, !tbaa !34
  %8 = and i64 %7, 31
  %.not.i = icmp eq i64 %8, 27
  br i1 %.not.i, label %RB_FL_SET.exit, label %9

9:                                                ; preds = %RB_FL_ABLE.exit.i
  %10 = or i64 %7, 16384
  store i64 %10, ptr %6, align 8, !tbaa !34
  br label %RB_FL_SET.exit

RB_FL_SET.exit:                                   ; preds = %1, %RB_FL_ABLE.exit.i, %9
  ret void
}